target datalayout = "e-m:e-p270:32:32-p271:32:32-p272:64:64-i64:64-i128:128-f80:128-n8:16:32:64-S128"
target triple = "x86_64-pc-linux-gnu"

%"struct.Imf_3_4::Channel" = type <{ i32, i32, i32, i8, [3 x i8] }>

; Function Attrs: mustprogress nounwind uwtable
define noundef zeroext i1 @_ZNK7Imf_3_47ChanneleqERKS0_(ptr noundef nonnull align 4 dereferenceable(13) %0, ptr noundef nonnull align 4 dereferenceable(13) %1) #0 align 2 {
  %3 = alloca ptr, align 8
  %4 = alloca ptr, align 8
  store ptr %0, ptr %3, align 8, !tbaa !3
  store ptr %1, ptr %4, align 8, !tbaa !3
  %5 = load ptr, ptr %3, align 8
  %6 = getelementptr inbounds nuw %"struct.Imf_3_4::Channel", ptr %5, i32 0, i32 0
  %7 = load i32, ptr %6, align 4, !tbaa !14
  %8 = load ptr, ptr %4, align 8, !tbaa !3
  %9 = getelementptr inbounds nuw %"struct.Imf_3_4::Channel", ptr %8, i32 0, i32 0
  %10 = load i32, ptr %9, align 4, !tbaa !14
  %11 = icmp eq i32 %7, %10
  br i1 %11, label %12, label %37

12:                                               ; preds = %2
  %13 = getelementptr inbounds nuw %"struct.Imf_3_4::Channel", ptr %5, i32 0, i32 1
  %14 = load i32, ptr %13, align 4, !tbaa !16
  %15 = load ptr, ptr %4, align 8, !tbaa !3
  %16 = getelementptr inbounds nuw %"struct.Imf_3_4::Channel", ptr %15, i32 0, i32 1
  %17 = load i32, ptr %16, align 4, !tbaa !16
  %18 = icmp eq i32 %14, %17
  br i1 %18, label %19, label %37

19:                                               ; preds = %12
  %20 = getelementptr inbounds nuw %"struct.Imf_3_4::Channel", ptr %5, i32 0, i32 2
  %21 = load i32, ptr %20, align 4, !tbaa !17
  %22 = load ptr, ptr %4, align 8, !tbaa !3
  %23 = getelementptr inbounds nuw %"struct.Imf_3_4::Channel", ptr %22, i32 0, i32 2
  %24 = load i32, ptr %23, align 4, !tbaa !17
  %25 = icmp eq i32 %21, %24
  br i1 %25, label %26, label %37

26:                                               ; preds = %19
  %27 = getelementptr inbounds nuw %"struct.Imf_3_4::Channel", ptr %5, i32 0, i32 3
  %28 = load i8, ptr %27, align 4, !tbaa !20, !range !18, !noundef !19
  %29 = trunc i8 %28 to i1
  %30 = zext i1 %29 to i32
  %31 = load ptr, ptr %4, align 8, !tbaa !3
  %32 = getelementptr inbounds nuw %"struct.Imf_3_4::Channel", ptr %31, i32 0, i32 3
  %33 = load i8, ptr %32, align 4, !tbaa !20, !range !18, !noundef !19
  %34 = trunc i8 %33 to i1
  %35 = zext i1 %34 to i32
  %36 = icmp eq i32 %30, %35
  br label %37

37:                                               ; preds = %26, %19, %12, %2
  %38 = phi i1 [ false, %19 ], [ false, %12 ], [ false, %2 ], [ %36, %26 ]
  ret i1 %38
}