; Function Attrs: mustprogress nofree norecurse nosync nounwind willreturn memory(argmem: read) uwtable
define noundef zeroext i1 @_ZNK7Imf_3_47ChanneleqERKS0_(ptr noundef nonnull readonly align 4 captures(none) dereferenceable(13) %0, ptr noundef nonnull readonly align 4 captures(none) dereferenceable(13) %1) local_unnamed_addr #1 align 2 {
  %3 = load i32, ptr %0, align 4, !tbaa !3
  %4 = load i32, ptr %1, align 4, !tbaa !3
  %5 = icmp eq i32 %3, %4
  br i1 %5, label %6, label %24

6:                                                ; preds = %2
  %7 = getelementptr inbounds nuw i8, ptr %0, i64 4
  %8 = load i32, ptr %7, align 4, !tbaa !10
  %9 = getelementptr inbounds nuw i8, ptr %1, i64 4
  %10 = load i32, ptr %9, align 4, !tbaa !10
  %11 = icmp eq i32 %8, %10
  br i1 %11, label %12, label %24

12:                                               ; preds = %6
  %13 = getelementptr inbounds nuw i8, ptr %0, i64 8
  %14 = load i32, ptr %13, align 4, !tbaa !11
  %15 = getelementptr inbounds nuw i8, ptr %1, i64 8
  %16 = load i32, ptr %15, align 4, !tbaa !11
  %17 = icmp eq i32 %14, %16
  br i1 %17, label %18, label %24

18:                                               ; preds = %12
  %19 = getelementptr inbounds nuw i8, ptr %0, i64 12
  %20 = load i8, ptr %19, align 4, !tbaa !12, !range !13, !noundef !14
  %21 = getelementptr inbounds nuw i8, ptr %1, i64 12
  %22 = load i8, ptr %21, align 4, !tbaa !12, !range !13, !noundef !14
  %23 = icmp eq i8 %20, %22
  br label %24

24:                                               ; preds = %18, %12, %6, %2
  %25 = phi i1 [ false, %12 ], [ false, %6 ], [ false, %2 ], [ %23, %18 ]
  ret i1 %25
}